target datalayout = "e-m:e-p270:32:32-p271:32:32-p272:64:64-i64:64-i128:128-f80:128-n8:16:32:64-S128"
target triple = "x86_64-pc-linux-gnu"

%struct.quic_conn_id_st = type { i8, [20 x i8] }
%union.bio_addr_st = type { %struct.sockaddr_in6, [84 x i8] }
%struct.sockaddr_in6 = type { i16, i16, i32, %struct.in6_addr, i32 }
%struct.in6_addr = type { %union.anon }
%union.anon = type { [4 x i32] }
%struct.OSSL_TIME = type { i64 }
%struct.quic_channel_st = type { ptr, %struct.anon, %struct.anon.0, ptr, ptr, ptr, ptr, ptr, ptr, ptr, i64, %union.bio_addr_st, ptr, ptr, ptr, %struct.quic_txfc_st, %struct.quic_rxfc_st, [3 x %struct.quic_rxfc_st], %struct.quic_rxfc_st, %struct.quic_rxfc_st, %struct.quic_stream_map_st, %struct.ossl_statm_st, ptr, ptr, ptr, ptr, ptr, ptr, ptr, ptr, [3 x ptr], [3 x ptr], %struct.quic_conn_id_st, %struct.quic_conn_id_st, %struct.quic_conn_id_st, %struct.quic_conn_id_st, %struct.quic_conn_id_st, %struct.quic_conn_id_st, i64, i64, i64, i64, i64, i64, i64, i64, i64, i64, i8, i16, ptr, i64, i64, i64, i64, i64, i64, i64, i64, i64, i64, i64, i64, i64, %struct.quic_terminate_cause_st, %struct.OSSL_TIME, %struct.OSSL_TIME, %struct.OSSL_TIME, %struct.OSSL_TIME, %struct.OSSL_TIME, i64, i64, i64, ptr, ptr, i64, ptr }
%struct.anon = type { ptr, ptr }
%struct.anon.0 = type { ptr, ptr }
%struct.quic_txfc_st = type { ptr, i64, i64, i8 }
%struct.quic_rxfc_st = type { i64, i64, i64, i64, i64, i64, i64, %struct.OSSL_TIME, ptr, ptr, ptr, i8, i8, i8, i8 }
%struct.quic_stream_map_st = type { ptr, %struct.quic_stream_list_node_st, %struct.quic_stream_list_node_st, %struct.quic_stream_list_node_st, i64, i64, i64, i64, i64, ptr, ptr, ptr, ptr, ptr, i32 }
%struct.quic_stream_list_node_st = type { ptr, ptr }
%struct.ossl_statm_st = type { %struct.OSSL_TIME, %struct.OSSL_TIME, %struct.OSSL_TIME, %struct.OSSL_TIME, i8 }
%struct.quic_terminate_cause_st = type { i64, i64, ptr, i64, i8 }

@.str = private unnamed_addr constant [35 x i8] c"../openssl/ssl/quic/quic_channel.c\00", align 1
@.str.13 = private unnamed_addr constant [31 x i8] c"crypto stream data in wrong EL\00", align 1
@__func__.ch_on_crypto_recv_record = private unnamed_addr constant [25 x i8] c"ch_on_crypto_recv_record\00", align 1

; Function Attrs: nounwind uwtable
define internal i32 @crypto_ensure_empty(ptr noundef %0) #0 {
  %2 = alloca i32, align 4
  %3 = alloca ptr, align 8
  %4 = alloca i64, align 8
  %5 = alloca i32, align 4
  %6 = alloca i32, align 4
  store ptr %0, ptr %3, align 8, !tbaa !120
  call void @llvm.lifetime.start.p0(i64 8, ptr %4) #9
  store i64 0, ptr %4, align 8, !tbaa !47
  call void @llvm.lifetime.start.p0(i64 4, ptr %5) #9
  store i32 0, ptr %5, align 4, !tbaa !80
  %7 = load ptr, ptr %3, align 8, !tbaa !120
  %8 = icmp eq ptr %7, null
  br i1 %8, label %9, label %10

9:                                                ; preds = %1
  store i32 1, ptr %2, align 4
  store i32 1, ptr %6, align 4
  br label %19

10:                                               ; preds = %1
  %11 = load ptr, ptr %3, align 8, !tbaa !120
  %12 = call i32 @ossl_quic_rstream_available(ptr noundef %11, ptr noundef %4, ptr noundef %5)
  %13 = icmp ne i32 %12, 0
  br i1 %13, label %15, label %14

14:                                               ; preds = %10
  store i32 0, ptr %2, align 4
  store i32 1, ptr %6, align 4
  br label %19

15:                                               ; preds = %10
  %16 = load i64, ptr %4, align 8, !tbaa !47
  %17 = icmp eq i64 %16, 0
  %18 = zext i1 %17 to i32
  store i32 %18, ptr %2, align 4
  store i32 1, ptr %6, align 4
  br label %19

19:                                               ; preds = %15, %14, %9
  call void @llvm.lifetime.end.p0(i64 4, ptr %5) #9
  call void @llvm.lifetime.end.p0(i64 8, ptr %4) #9
  %20 = load i32, ptr %2, align 4
  ret i32 %20
}

; Function Attrs: inlinehint nounwind uwtable
define internal i32 @ossl_quic_enc_level_to_pn_space(i32 noundef %0) #4 {
  %2 = alloca i32, align 4
  %3 = alloca i32, align 4
  store i32 %0, ptr %3, align 4, !tbaa !80
  %4 = load i32, ptr %3, align 4, !tbaa !80
  switch i32 %4, label %8 [
    i32 0, label %5
    i32 2, label %6
    i32 1, label %7
    i32 3, label %7
  ]

5:                                                ; preds = %1
  store i32 0, ptr %2, align 4
  br label %9

6:                                                ; preds = %1
  store i32 1, ptr %2, align 4
  br label %9

7:                                                ; preds = %1, %1
  store i32 2, ptr %2, align 4
  br label %9

8:                                                ; preds = %1
  store i32 2, ptr %2, align 4
  br label %9

9:                                                ; preds = %8, %7, %6, %5
  %10 = load i32, ptr %2, align 4
  ret i32 %10
}

; Function Attrs: nounwind uwtable
define internal i32 @ch_on_crypto_recv_record(ptr noundef %0, ptr noundef %1, ptr noundef %2) #0 {
  %4 = alloca i32, align 4
  %5 = alloca ptr, align 8
  %6 = alloca ptr, align 8
  %7 = alloca ptr, align 8
  %8 = alloca ptr, align 8
  %9 = alloca ptr, align 8
  %10 = alloca i32, align 4
  %11 = alloca i32, align 4
  %12 = alloca i32, align 4
  store ptr %0, ptr %5, align 8, !tbaa !274
  store ptr %1, ptr %6, align 8, !tbaa !253
  store ptr %2, ptr %7, align 8, !tbaa !172
  call void @llvm.lifetime.start.p0(i64 8, ptr %8) #9
  %13 = load ptr, ptr %7, align 8, !tbaa !172
  store ptr %13, ptr %8, align 8, !tbaa !3
  call void @llvm.lifetime.start.p0(i64 8, ptr %9) #9
  call void @llvm.lifetime.start.p0(i64 4, ptr %10) #9
  store i32 0, ptr %10, align 4, !tbaa !80
  call void @llvm.lifetime.start.p0(i64 4, ptr %11) #9
  store i32 0, ptr %11, align 4, !tbaa !80
  br label %14

14:                                               ; preds = %39, %3
  %15 = load i32, ptr %11, align 4, !tbaa !80
  %16 = load ptr, ptr %8, align 8, !tbaa !3
  %17 = getelementptr inbounds nuw %struct.quic_channel_st, ptr %16, i32 0, i32 72
  %18 = load i64, ptr %17, align 8
  %19 = lshr i64 %18, 17
  %20 = and i64 %19, 7
  %21 = trunc i64 %20 to i32
  %22 = icmp ult i32 %15, %21
  br i1 %22, label %23, label %42

23:                                               ; preds = %14
  %24 = load i32, ptr %11, align 4, !tbaa !80
  %25 = icmp ne i32 %24, 1
  br i1 %25, label %26, label %38

26:                                               ; preds = %23
  %27 = load ptr, ptr %8, align 8, !tbaa !3
  %28 = getelementptr inbounds nuw %struct.quic_channel_st, ptr %27, i32 0, i32 31
  %29 = load i32, ptr %11, align 4, !tbaa !80
  %30 = call i32 @ossl_quic_enc_level_to_pn_space(i32 noundef %29)
  %31 = zext i32 %30 to i64
  %32 = getelementptr inbounds nuw [3 x ptr], ptr %28, i64 0, i64 %31
  %33 = load ptr, ptr %32, align 8, !tbaa !120
  %34 = call i32 @crypto_ensure_empty(ptr noundef %33)
  %35 = icmp ne i32 %34, 0
  br i1 %35, label %38, label %36

36:                                               ; preds = %26
  %37 = load ptr, ptr %8, align 8, !tbaa !3
  call void @ossl_quic_channel_raise_protocol_error_loc(ptr noundef %37, i64 noundef 10, i64 noundef 6, ptr noundef @.str.13, ptr noundef null, ptr noundef @.str, i32 noundef 982, ptr noundef @__func__.ch_on_crypto_recv_record)
  store i32 0, ptr %4, align 4
  store i32 1, ptr %12, align 4
  br label %63

38:                                               ; preds = %26, %23
  br label %39

39:                                               ; preds = %38
  %40 = load i32, ptr %11, align 4, !tbaa !80
  %41 = add i32 %40, 1
  store i32 %41, ptr %11, align 4, !tbaa !80
  br label %14, !llvm.loop !276

42:                                               ; preds = %14
  %43 = load ptr, ptr %8, align 8, !tbaa !3
  %44 = getelementptr inbounds nuw %struct.quic_channel_st, ptr %43, i32 0, i32 31
  %45 = load ptr, ptr %8, align 8, !tbaa !3
  %46 = getelementptr inbounds nuw %struct.quic_channel_st, ptr %45, i32 0, i32 72
  %47 = load i64, ptr %46, align 8
  %48 = lshr i64 %47, 17
  %49 = and i64 %48, 7
  %50 = trunc i64 %49 to i32
  %51 = call i32 @ossl_quic_enc_level_to_pn_space(i32 noundef %50)
  %52 = zext i32 %51 to i64
  %53 = getelementptr inbounds nuw [3 x ptr], ptr %44, i64 0, i64 %52
  %54 = load ptr, ptr %53, align 8, !tbaa !120
  store ptr %54, ptr %9, align 8, !tbaa !120
  %55 = load ptr, ptr %9, align 8, !tbaa !120
  %56 = icmp eq ptr %55, null
  br i1 %56, label %57, label %58

57:                                               ; preds = %42
  store i32 0, ptr %4, align 4
  store i32 1, ptr %12, align 4
  br label %63

58:                                               ; preds = %42
  %59 = load ptr, ptr %9, align 8, !tbaa !120
  %60 = load ptr, ptr %5, align 8, !tbaa !274
  %61 = load ptr, ptr %6, align 8, !tbaa !253
  %62 = call i32 @ossl_quic_rstream_get_record(ptr noundef %59, ptr noundef %60, ptr noundef %61, ptr noundef %10)
  store i32 %62, ptr %4, align 4
  store i32 1, ptr %12, align 4
  br label %63

63:                                               ; preds = %58, %57, %36
  call void @llvm.lifetime.end.p0(i64 4, ptr %11) #9
  call void @llvm.lifetime.end.p0(i64 4, ptr %10) #9
  call void @llvm.lifetime.end.p0(i64 8, ptr %9) #9
  call void @llvm.lifetime.end.p0(i64 8, ptr %8) #9
  %64 = load i32, ptr %4, align 4
  ret i32 %64
}