; Function Attrs: nounwind uwtable
define internal i32 @ch_on_crypto_recv_record(ptr noundef %0, ptr noundef %1, ptr noundef %2) #0 {
  %4 = alloca i64, align 8
  %5 = alloca i32, align 4
  %6 = alloca i32, align 4
  call void @llvm.lifetime.start.p0(i64 4, ptr nonnull %6) #15
  store i32 0, ptr %6, align 4, !tbaa !254
  %7 = getelementptr inbounds nuw i8, ptr %2, i64 1568
  %8 = load i64, ptr %7, align 8
  %9 = and i64 %8, 917504
  %.not31 = icmp eq i64 %9, 0
  %10 = getelementptr inbounds nuw i8, ptr %2, i64 1120
  br i1 %.not31, label %.thread, label %.lr.ph

.lr.ph:                                           ; preds = %3, %19
  %11 = phi i64 [ %.fr43, %19 ], [ %8, %3 ]
  %.030 = phi i32 [ %21, %19 ], [ 0, %3 ]
  %.not = icmp eq i32 %.030, 1
  br i1 %.not, label %19, label %12

12:                                               ; preds = %.lr.ph
  %switch.selectcmp.i = icmp eq i32 %.030, 2
  %switch.select.i = select i1 %switch.selectcmp.i, i64 1, i64 2
  %switch.selectcmp2.i = icmp eq i32 %.030, 0
  %switch.select3.i = select i1 %switch.selectcmp2.i, i64 0, i64 %switch.select.i
  %13 = getelementptr inbounds nuw [3 x ptr], ptr %10, i64 0, i64 %switch.select3.i
  %14 = load ptr, ptr %13, align 8, !tbaa !118
  call void @llvm.lifetime.start.p0(i64 8, ptr nonnull %4) #15
  store i64 0, ptr %4, align 8, !tbaa !71
  call void @llvm.lifetime.start.p0(i64 4, ptr nonnull %5) #15
  store i32 0, ptr %5, align 4, !tbaa !254
  %15 = icmp eq ptr %14, null
  br i1 %15, label %crypto_ensure_empty.exit.thread24, label %16

crypto_ensure_empty.exit.thread24:                ; preds = %12
  call void @llvm.lifetime.end.p0(i64 4, ptr nonnull %5) #15
  call void @llvm.lifetime.end.p0(i64 8, ptr nonnull %4) #15
  br label %19

16:                                               ; preds = %12
  %17 = call i32 @ossl_quic_rstream_available(ptr noundef nonnull %14, ptr noundef nonnull %4, ptr noundef nonnull %5) #15
  %.not.i = icmp eq i32 %17, 0
  br i1 %.not.i, label %crypto_ensure_empty.exit.thread, label %crypto_ensure_empty.exit

crypto_ensure_empty.exit.thread:                  ; preds = %16
  call void @llvm.lifetime.end.p0(i64 4, ptr nonnull %5) #15
  call void @llvm.lifetime.end.p0(i64 8, ptr nonnull %4) #15
  br label %.loopexit

crypto_ensure_empty.exit:                         ; preds = %16
  %18 = load i64, ptr %4, align 8, !tbaa !71
  %.not27 = icmp eq i64 %18, 0
  call void @llvm.lifetime.end.p0(i64 4, ptr nonnull %5) #15
  call void @llvm.lifetime.end.p0(i64 8, ptr nonnull %4) #15
  br i1 %.not27, label %crypto_ensure_empty.exit._crit_edge, label %.loopexit

crypto_ensure_empty.exit._crit_edge:              ; preds = %crypto_ensure_empty.exit
  %.pre = load i64, ptr %7, align 8
  br label %19

.loopexit:                                        ; preds = %crypto_ensure_empty.exit, %crypto_ensure_empty.exit.thread
  call void @ossl_quic_channel_raise_protocol_error_loc(ptr noundef nonnull %2, i64 noundef 10, i64 noundef 6, ptr noundef nonnull @.str.13, ptr noundef null, ptr noundef nonnull @.str, i32 noundef 982, ptr noundef nonnull @__func__.ch_on_crypto_recv_record)
  br label %33

19:                                               ; preds = %crypto_ensure_empty.exit._crit_edge, %crypto_ensure_empty.exit.thread24, %.lr.ph
  %20 = phi i64 [ %.pre, %crypto_ensure_empty.exit._crit_edge ], [ %11, %crypto_ensure_empty.exit.thread24 ], [ %11, %.lr.ph ]
  %.fr43 = freeze i64 %20
  %21 = add nuw nsw i32 %.030, 1
  %22 = trunc i64 %.fr43 to i32
  %23 = lshr i32 %22, 17
  %24 = and i32 %23, 7
  %25 = icmp samesign ult i32 %21, %24
  br i1 %25, label %.lr.ph, label %._crit_edge, !llvm.loop !255

._crit_edge:                                      ; preds = %19
  %switch.selectcmp.i18 = icmp eq i32 %24, 2
  %spec.select = select i1 %switch.selectcmp.i18, i64 1, i64 2
  %switch.selectcmp2.i20 = icmp eq i32 %24, 0
  %spec.select41 = select i1 %switch.selectcmp2.i20, i64 0, i64 %spec.select
  br label %.thread

.thread:                                          ; preds = %._crit_edge, %3
  %26 = phi i64 [ 0, %3 ], [ %spec.select41, %._crit_edge ]
  %27 = getelementptr inbounds nuw i8, ptr %2, i64 1120
  %28 = getelementptr inbounds nuw [3 x ptr], ptr %27, i64 0, i64 %26
  %29 = load ptr, ptr %28, align 8, !tbaa !118
  %30 = icmp eq ptr %29, null
  br i1 %30, label %33, label %31

31:                                               ; preds = %.thread
  %32 = call i32 @ossl_quic_rstream_get_record(ptr noundef nonnull %29, ptr noundef %0, ptr noundef %1, ptr noundef nonnull %6) #15
  br label %33

33:                                               ; preds = %.thread, %31, %.loopexit
  %.014 = phi i32 [ 0, %.loopexit ], [ %32, %31 ], [ 0, %.thread ]
  call void @llvm.lifetime.end.p0(i64 4, ptr nonnull %6) #15
  ret i32 %.014
}